target datalayout = "e-m:e-p270:32:32-p271:32:32-p272:64:64-i64:64-i128:128-f80:128-n8:16:32:64-S128"
target triple = "x86_64-pc-linux-gnu"

%struct.GetByteContext = type { ptr, ptr, ptr }

; Function Attrs: alwaysinline nounwind uwtable
define internal i32 @bytestream_get_byte(ptr noundef %0) #5 {
  %2 = alloca ptr, align 8
  store ptr %0, ptr %2, align 8, !tbaa !124
  %3 = load ptr, ptr %2, align 8, !tbaa !124
  %4 = load ptr, ptr %3, align 8, !tbaa !45
  %5 = getelementptr inbounds i8, ptr %4, i64 1
  store ptr %5, ptr %3, align 8, !tbaa !45
  %6 = load ptr, ptr %2, align 8, !tbaa !124
  %7 = load ptr, ptr %6, align 8, !tbaa !45
  %8 = getelementptr inbounds i8, ptr %7, i64 -1
  %9 = getelementptr inbounds i8, ptr %8, i64 0
  %10 = load i8, ptr %9, align 1, !tbaa !34
  %11 = zext i8 %10 to i32
  ret i32 %11
}

; Function Attrs: alwaysinline nounwind willreturn memory(none) uwtable
define internal zeroext i16 @av_bswap16(i16 noundef zeroext %0) #3 {
  %2 = alloca i16, align 2
  store i16 %0, ptr %2, align 2, !tbaa !115
  %3 = load i16, ptr %2, align 2, !tbaa !115
  %4 = zext i16 %3 to i32
  %5 = ashr i32 %4, 8
  %6 = load i16, ptr %2, align 2, !tbaa !115
  %7 = zext i16 %6 to i32
  %8 = shl i32 %7, 8
  %9 = or i32 %5, %8
  %10 = trunc i32 %9 to i16
  store i16 %10, ptr %2, align 2, !tbaa !115
  %11 = load i16, ptr %2, align 2, !tbaa !115
  ret i16 %11
}

; Function Attrs: alwaysinline nounwind uwtable
define internal i32 @bytestream2_get_byteu(ptr noundef %0) #5 {
  %2 = alloca ptr, align 8
  store ptr %0, ptr %2, align 8, !tbaa !55
  %3 = load ptr, ptr %2, align 8, !tbaa !55
  %4 = getelementptr inbounds nuw %struct.GetByteContext, ptr %3, i32 0, i32 0
  %5 = call i32 @bytestream_get_byte(ptr noundef %4)
  ret i32 %5
}

; Function Attrs: alwaysinline nounwind uwtable
define internal i32 @bytestream_get_be16(ptr noundef %0) #5 {
  %2 = alloca ptr, align 8
  store ptr %0, ptr %2, align 8, !tbaa !124
  %3 = load ptr, ptr %2, align 8, !tbaa !124
  %4 = load ptr, ptr %3, align 8, !tbaa !45
  %5 = getelementptr inbounds i8, ptr %4, i64 2
  store ptr %5, ptr %3, align 8, !tbaa !45
  %6 = load ptr, ptr %2, align 8, !tbaa !124
  %7 = load ptr, ptr %6, align 8, !tbaa !45
  %8 = getelementptr inbounds i8, ptr %7, i64 -2
  %9 = load i16, ptr %8, align 1, !tbaa !34
  %10 = call zeroext i16 @av_bswap16(i16 noundef zeroext %9) #10
  %11 = zext i16 %10 to i32
  ret i32 %11
}

; Function Attrs: alwaysinline nounwind uwtable
define internal i32 @bytestream2_get_be16(ptr noundef %0) #5 {
  %2 = alloca i32, align 4
  %3 = alloca ptr, align 8
  store ptr %0, ptr %3, align 8, !tbaa !55
  %4 = load ptr, ptr %3, align 8, !tbaa !55
  %5 = getelementptr inbounds nuw %struct.GetByteContext, ptr %4, i32 0, i32 1
  %6 = load ptr, ptr %5, align 8, !tbaa !128
  %7 = load ptr, ptr %3, align 8, !tbaa !55
  %8 = getelementptr inbounds nuw %struct.GetByteContext, ptr %7, i32 0, i32 0
  %9 = load ptr, ptr %8, align 8, !tbaa !125
  %10 = ptrtoint ptr %6 to i64
  %11 = ptrtoint ptr %9 to i64
  %12 = sub i64 %10, %11
  %13 = icmp slt i64 %12, 2
  br i1 %13, label %14, label %20

14:                                               ; preds = %1
  %15 = load ptr, ptr %3, align 8, !tbaa !55
  %16 = getelementptr inbounds nuw %struct.GetByteContext, ptr %15, i32 0, i32 1
  %17 = load ptr, ptr %16, align 8, !tbaa !128
  %18 = load ptr, ptr %3, align 8, !tbaa !55
  %19 = getelementptr inbounds nuw %struct.GetByteContext, ptr %18, i32 0, i32 0
  store ptr %17, ptr %19, align 8, !tbaa !125
  store i32 0, ptr %2, align 4
  br label %23

20:                                               ; preds = %1
  %21 = load ptr, ptr %3, align 8, !tbaa !55
  %22 = call i32 @bytestream2_get_be16u(ptr noundef %21)
  store i32 %22, ptr %2, align 4
  br label %23

23:                                               ; preds = %20, %14
  %24 = load i32, ptr %2, align 4
  ret i32 %24
}

; Function Attrs: alwaysinline nounwind uwtable
define internal i32 @bytestream2_get_byte(ptr noundef %0) #5 {
  %2 = alloca i32, align 4
  %3 = alloca ptr, align 8
  store ptr %0, ptr %3, align 8, !tbaa !55
  %4 = load ptr, ptr %3, align 8, !tbaa !55
  %5 = getelementptr inbounds nuw %struct.GetByteContext, ptr %4, i32 0, i32 1
  %6 = load ptr, ptr %5, align 8, !tbaa !128
  %7 = load ptr, ptr %3, align 8, !tbaa !55
  %8 = getelementptr inbounds nuw %struct.GetByteContext, ptr %7, i32 0, i32 0
  %9 = load ptr, ptr %8, align 8, !tbaa !125
  %10 = ptrtoint ptr %6 to i64
  %11 = ptrtoint ptr %9 to i64
  %12 = sub i64 %10, %11
  %13 = icmp slt i64 %12, 1
  br i1 %13, label %14, label %20

14:                                               ; preds = %1
  %15 = load ptr, ptr %3, align 8, !tbaa !55
  %16 = getelementptr inbounds nuw %struct.GetByteContext, ptr %15, i32 0, i32 1
  %17 = load ptr, ptr %16, align 8, !tbaa !128
  %18 = load ptr, ptr %3, align 8, !tbaa !55
  %19 = getelementptr inbounds nuw %struct.GetByteContext, ptr %18, i32 0, i32 0
  store ptr %17, ptr %19, align 8, !tbaa !125
  store i32 0, ptr %2, align 4
  br label %23

20:                                               ; preds = %1
  %21 = load ptr, ptr %3, align 8, !tbaa !55
  %22 = call i32 @bytestream2_get_byteu(ptr noundef %21)
  store i32 %22, ptr %2, align 4
  br label %23

23:                                               ; preds = %20, %14
  %24 = load i32, ptr %2, align 4
  ret i32 %24
}

; Function Attrs: alwaysinline nounwind uwtable
define internal i32 @bytestream2_get_be16u(ptr noundef %0) #5 {
  %2 = alloca ptr, align 8
  store ptr %0, ptr %2, align 8, !tbaa !55
  %3 = load ptr, ptr %2, align 8, !tbaa !55
  %4 = getelementptr inbounds nuw %struct.GetByteContext, ptr %3, i32 0, i32 0
  %5 = call i32 @bytestream_get_be16(ptr noundef %4)
  ret i32 %5
}

; Function Attrs: alwaysinline nounwind uwtable
define internal i32 @bytestream2_get_bytes_left(ptr noundef %0) #5 {
  %2 = alloca ptr, align 8
  store ptr %0, ptr %2, align 8, !tbaa !55
  %3 = load ptr, ptr %2, align 8, !tbaa !55
  %4 = getelementptr inbounds nuw %struct.GetByteContext, ptr %3, i32 0, i32 1
  %5 = load ptr, ptr %4, align 8, !tbaa !128
  %6 = load ptr, ptr %2, align 8, !tbaa !55
  %7 = getelementptr inbounds nuw %struct.GetByteContext, ptr %6, i32 0, i32 0
  %8 = load ptr, ptr %7, align 8, !tbaa !125
  %9 = ptrtoint ptr %5 to i64
  %10 = ptrtoint ptr %8 to i64
  %11 = sub i64 %9, %10
  %12 = trunc i64 %11 to i32
  ret i32 %12
}

; Function Attrs: nounwind uwtable
define internal void @decode_rgbn(ptr noundef %0, ptr noundef %1, i32 noundef %2, i32 noundef %3, i32 noundef %4) #1 {
  %6 = alloca ptr, align 8
  %7 = alloca ptr, align 8
  %8 = alloca i32, align 4
  %9 = alloca i32, align 4
  %10 = alloca i32, align 4
  %11 = alloca i32, align 4
  %12 = alloca i32, align 4
  %13 = alloca i32, align 4
  %14 = alloca i32, align 4
  %15 = alloca i32, align 4
  %16 = alloca i32, align 4
  store ptr %0, ptr %6, align 8, !tbaa !55
  store ptr %1, ptr %7, align 8, !tbaa !45
  store i32 %2, ptr %8, align 4, !tbaa !35
  store i32 %3, ptr %9, align 4, !tbaa !35
  store i32 %4, ptr %10, align 4, !tbaa !35
  call void @llvm.lifetime.start.p0(i64 4, ptr %11) #9
  store i32 0, ptr %11, align 4, !tbaa !35
  call void @llvm.lifetime.start.p0(i64 4, ptr %12) #9
  store i32 0, ptr %12, align 4, !tbaa !35
  call void @llvm.lifetime.start.p0(i64 4, ptr %13) #9
  call void @llvm.lifetime.start.p0(i64 4, ptr %14) #9
  br label %17

17:                                               ; preds = %81, %5
  %18 = load ptr, ptr %6, align 8, !tbaa !55
  %19 = call i32 @bytestream2_get_bytes_left(ptr noundef %18)
  %20 = icmp sge i32 %19, 2
  br i1 %20, label %21, label %82

21:                                               ; preds = %17
  call void @llvm.lifetime.start.p0(i64 4, ptr %15) #9
  %22 = load ptr, ptr %6, align 8, !tbaa !55
  %23 = call i32 @bytestream2_get_be16u(ptr noundef %22)
  store i32 %23, ptr %15, align 4, !tbaa !35
  %24 = load i32, ptr %15, align 4, !tbaa !35
  %25 = and i32 %24, 7
  store i32 %25, ptr %14, align 4, !tbaa !35
  %26 = load i32, ptr %15, align 4, !tbaa !35
  %27 = lshr i32 %26, 4
  store i32 %27, ptr %15, align 4, !tbaa !35
  %28 = load i32, ptr %14, align 4, !tbaa !35
  %29 = icmp ne i32 %28, 0
  br i1 %29, label %43, label %30

30:                                               ; preds = %21
  %31 = load ptr, ptr %6, align 8, !tbaa !55
  %32 = call i32 @bytestream2_get_byte(ptr noundef %31)
  store i32 %32, ptr %14, align 4, !tbaa !35
  %33 = load i32, ptr %14, align 4, !tbaa !35
  %34 = icmp ne i32 %33, 0
  br i1 %34, label %42, label %35

35:                                               ; preds = %30
  %36 = load ptr, ptr %6, align 8, !tbaa !55
  %37 = call i32 @bytestream2_get_be16(ptr noundef %36)
  store i32 %37, ptr %14, align 4, !tbaa !35
  %38 = load i32, ptr %14, align 4, !tbaa !35
  %39 = icmp ne i32 %38, 0
  br i1 %39, label %41, label %40

40:                                               ; preds = %35
  store i32 1, ptr %16, align 4
  br label %79

41:                                               ; preds = %35
  br label %42

42:                                               ; preds = %41, %30
  br label %43

43:                                               ; preds = %42, %21
  store i32 0, ptr %13, align 4, !tbaa !35
  br label %44

44:                                               ; preds = %75, %43
  %45 = load i32, ptr %13, align 4, !tbaa !35
  %46 = load i32, ptr %14, align 4, !tbaa !35
  %47 = icmp slt i32 %45, %46
  br i1 %47, label %48, label %78

48:                                               ; preds = %44
  %49 = load i32, ptr %15, align 4, !tbaa !35
  %50 = trunc i32 %49 to i16
  %51 = load ptr, ptr %7, align 8, !tbaa !45
  %52 = load i32, ptr %12, align 4, !tbaa !35
  %53 = load i32, ptr %10, align 4, !tbaa !35
  %54 = mul nsw i32 %52, %53
  %55 = sext i32 %54 to i64
  %56 = getelementptr inbounds i8, ptr %51, i64 %55
  %57 = load i32, ptr %11, align 4, !tbaa !35
  %58 = sext i32 %57 to i64
  %59 = mul i64 %58, 2
  %60 = getelementptr inbounds nuw i8, ptr %56, i64 %59
  store i16 %50, ptr %60, align 2, !tbaa !115
  %61 = load i32, ptr %11, align 4, !tbaa !35
  %62 = add nsw i32 %61, 1
  store i32 %62, ptr %11, align 4, !tbaa !35
  %63 = load i32, ptr %11, align 4, !tbaa !35
  %64 = load i32, ptr %8, align 4, !tbaa !35
  %65 = icmp sge i32 %63, %64
  br i1 %65, label %66, label %74

66:                                               ; preds = %48
  %67 = load i32, ptr %12, align 4, !tbaa !35
  %68 = add nsw i32 %67, 1
  store i32 %68, ptr %12, align 4, !tbaa !35
  %69 = load i32, ptr %12, align 4, !tbaa !35
  %70 = load i32, ptr %9, align 4, !tbaa !35
  %71 = icmp sge i32 %69, %70
  br i1 %71, label %72, label %73

72:                                               ; preds = %66
  store i32 1, ptr %16, align 4
  br label %79

73:                                               ; preds = %66
  store i32 0, ptr %11, align 4, !tbaa !35
  br label %74

74:                                               ; preds = %73, %48
  br label %75

75:                                               ; preds = %74
  %76 = load i32, ptr %13, align 4, !tbaa !35
  %77 = add nsw i32 %76, 1
  store i32 %77, ptr %13, align 4, !tbaa !35
  br label %44, !llvm.loop !154

78:                                               ; preds = %44
  store i32 0, ptr %16, align 4
  br label %79

79:                                               ; preds = %78, %72, %40
  call void @llvm.lifetime.end.p0(i64 4, ptr %15) #9
  %80 = load i32, ptr %16, align 4
  switch i32 %80, label %83 [
    i32 0, label %81
  ]

81:                                               ; preds = %79
  br label %17, !llvm.loop !155

82:                                               ; preds = %17
  store i32 0, ptr %16, align 4
  br label %83

83:                                               ; preds = %82, %79
  call void @llvm.lifetime.end.p0(i64 4, ptr %14) #9
  call void @llvm.lifetime.end.p0(i64 4, ptr %13) #9
  call void @llvm.lifetime.end.p0(i64 4, ptr %12) #9
  call void @llvm.lifetime.end.p0(i64 4, ptr %11) #9
  %84 = load i32, ptr %16, align 4
  switch i32 %84, label %86 [
    i32 0, label %85
    i32 1, label %85
  ]

85:                                               ; preds = %83, %83
  ret void

86:                                               ; preds = %83
  unreachable
}