; Function Attrs: nofree norecurse nosync nounwind memory(read, argmem: readwrite, inaccessiblemem: none) uwtable
define internal fastcc void @decode_rgbn(ptr noundef nonnull captures(none) %0, ptr noundef writeonly captures(none) %1, i32 noundef %2, i32 noundef %3, i32 noundef %4) unnamed_addr #7 {
  %6 = getelementptr inbounds nuw i8, ptr %0, i64 8
  %7 = load ptr, ptr %6, align 8, !tbaa !66
  %8 = ptrtoint ptr %7 to i64
  %.promoted = load ptr, ptr %0, align 8, !tbaa !40
  %9 = ptrtoint ptr %.promoted to i64
  %10 = sub i64 %8, %9
  %11 = trunc i64 %10 to i32
  %12 = icmp sgt i32 %11, 1
  br i1 %12, label %.lr.ph60, label %.thread

.loopexit:                                        ; preds = %49, %38
  %.228.lcssa = phi i32 [ %.02658, %38 ], [ %.329, %49 ]
  %.2.lcssa = phi i32 [ %.02559, %38 ], [ %.3, %49 ]
  %13 = ptrtoint ptr %39 to i64
  %14 = sub i64 %8, %13
  %15 = trunc i64 %14 to i32
  %16 = icmp sgt i32 %15, 1
  br i1 %16, label %.lr.ph60, label %.thread, !llvm.loop !166

.lr.ph60:                                         ; preds = %5, %.loopexit
  %.02559 = phi i32 [ %.2.lcssa, %.loopexit ], [ 0, %5 ]
  %.02658 = phi i32 [ %.228.lcssa, %.loopexit ], [ 0, %5 ]
  %17 = phi ptr [ %39, %.loopexit ], [ %.promoted, %5 ]
  %18 = getelementptr inbounds nuw i8, ptr %17, i64 2
  store ptr %18, ptr %0, align 8, !tbaa !40
  %19 = load i16, ptr %17, align 1, !tbaa !30
  %20 = tail call i16 @llvm.bswap.i16(i16 %19)
  %21 = and i16 %20, 7
  %22 = zext nneg i16 %21 to i32
  %23 = lshr i16 %20, 4
  %.not = icmp eq i16 %21, 0
  br i1 %.not, label %24, label %38

24:                                               ; preds = %.lr.ph60
  %25 = ptrtoint ptr %18 to i64
  %26 = sub i64 %8, %25
  %27 = icmp slt i64 %26, 1
  br i1 %27, label %bytestream2_get_byte.exit.thread, label %bytestream2_get_byte.exit

bytestream2_get_byte.exit:                        ; preds = %24
  %28 = getelementptr inbounds nuw i8, ptr %17, i64 3
  store ptr %28, ptr %0, align 8, !tbaa !40
  %29 = load i8, ptr %18, align 1, !tbaa !30
  %30 = zext i8 %29 to i32
  %.not37 = icmp eq i8 %29, 0
  br i1 %.not37, label %bytestream2_get_byte.exit._crit_edge, label %38

bytestream2_get_byte.exit._crit_edge:             ; preds = %bytestream2_get_byte.exit
  %.pre = ptrtoint ptr %28 to i64
  br label %bytestream2_get_byte.exit.thread

bytestream2_get_byte.exit.thread:                 ; preds = %24, %bytestream2_get_byte.exit._crit_edge
  %.pre-phi = phi i64 [ %.pre, %bytestream2_get_byte.exit._crit_edge ], [ %8, %24 ]
  %31 = phi ptr [ %28, %bytestream2_get_byte.exit._crit_edge ], [ %7, %24 ]
  %32 = sub i64 %8, %.pre-phi
  %33 = icmp slt i64 %32, 2
  br i1 %33, label %bytestream2_get_be16.exit.thread, label %bytestream2_get_be16.exit

bytestream2_get_be16.exit.thread:                 ; preds = %bytestream2_get_byte.exit.thread
  store ptr %7, ptr %0, align 8, !tbaa !63
  br label %.thread

bytestream2_get_be16.exit:                        ; preds = %bytestream2_get_byte.exit.thread
  %34 = getelementptr inbounds nuw i8, ptr %31, i64 2
  store ptr %34, ptr %0, align 8, !tbaa !40
  %35 = load i16, ptr %31, align 1, !tbaa !30
  %36 = tail call i16 @llvm.bswap.i16(i16 %35)
  %37 = zext i16 %36 to i32
  %.not38 = icmp eq i16 %35, 0
  br i1 %.not38, label %.thread, label %38

38:                                               ; preds = %bytestream2_get_byte.exit, %bytestream2_get_be16.exit, %.lr.ph60
  %39 = phi ptr [ %18, %.lr.ph60 ], [ %28, %bytestream2_get_byte.exit ], [ %34, %bytestream2_get_be16.exit ]
  %.023 = phi i32 [ %22, %.lr.ph60 ], [ %30, %bytestream2_get_byte.exit ], [ %37, %bytestream2_get_be16.exit ]
  %.not61 = icmp eq i32 %.023, 0
  br i1 %.not61, label %.loopexit, label %.lr.ph

.lr.ph:                                           ; preds = %38, %49
  %.02456 = phi i32 [ %50, %49 ], [ 0, %38 ]
  %.255 = phi i32 [ %.3, %49 ], [ %.02559, %38 ]
  %.22854 = phi i32 [ %.329, %49 ], [ %.02658, %38 ]
  %40 = mul nsw i32 %.255, %4
  %41 = sext i32 %40 to i64
  %42 = getelementptr inbounds i8, ptr %1, i64 %41
  %43 = sext i32 %.22854 to i64
  %44 = shl nsw i64 %43, 1
  %45 = getelementptr inbounds nuw i8, ptr %42, i64 %44
  store i16 %23, ptr %45, align 2, !tbaa !47
  %46 = add nsw i32 %.22854, 1
  %.not39 = icmp slt i32 %46, %2
  br i1 %.not39, label %49, label %47

47:                                               ; preds = %.lr.ph
  %48 = add nsw i32 %.255, 1
  %.not40 = icmp slt i32 %48, %3
  br i1 %.not40, label %49, label %.thread

49:                                               ; preds = %47, %.lr.ph
  %.329 = phi i32 [ %46, %.lr.ph ], [ 0, %47 ]
  %.3 = phi i32 [ %.255, %.lr.ph ], [ %48, %47 ]
  %50 = add nuw nsw i32 %.02456, 1
  %exitcond.not = icmp eq i32 %50, %.023
  br i1 %exitcond.not, label %.loopexit, label %.lr.ph, !llvm.loop !167

.thread:                                          ; preds = %.loopexit, %bytestream2_get_be16.exit, %47, %5, %bytestream2_get_be16.exit.thread
  ret void
}